target datalayout = "e-m:e-p270:32:32-p271:32:32-p272:64:64-i64:64-i128:128-f80:128-n8:16:32:64-S128"
target triple = "x86_64-pc-linux-gnu"

@GC_all_interior_pointers = global i32 1, align 4
@.str.21 = private unnamed_addr constant [23 x i8] c"GC_debug_malloc_atomic\00", align 1

; Function Attrs: nounwind allocsize(0) uwtable
define noalias ptr @GC_malloc_atomic(i64 noundef %0) #3 {
  %2 = alloca i64, align 8
  store i64 %0, ptr %2, align 8
  %3 = load i64, ptr %2, align 8
  %4 = call noalias ptr @GC_malloc_kind(i64 noundef %3, i32 noundef 0) #22
  ret ptr %4
}

; Function Attrs: nounwind allocsize(0) uwtable
define noalias ptr @GC_debug_malloc_atomic(i64 noundef %0, ptr noundef %1, i32 noundef %2) #3 {
  %4 = alloca i64, align 8
  %5 = alloca ptr, align 8
  %6 = alloca i32, align 4
  %7 = alloca ptr, align 8
  store i64 %0, ptr %4, align 8
  store ptr %1, ptr %5, align 8
  store i32 %2, ptr %6, align 4
  %8 = load i64, ptr %4, align 8
  %9 = load i32, ptr @GC_all_interior_pointers, align 4
  %10 = sext i32 %9 to i64
  %11 = sub i64 40, %10
  %12 = sub i64 -1, %11
  %13 = icmp ult i64 %8, %12
  %14 = zext i1 %13 to i32
  %15 = sext i32 %14 to i64
  %16 = icmp ne i64 %15, 0
  br i1 %16, label %17, label %23

17:                                               ; preds = %3
  %18 = load i64, ptr %4, align 8
  %19 = load i32, ptr @GC_all_interior_pointers, align 4
  %20 = sext i32 %19 to i64
  %21 = sub i64 40, %20
  %22 = add i64 %18, %21
  br label %24

23:                                               ; preds = %3
  br label %24

24:                                               ; preds = %23, %17
  %25 = phi i64 [ %22, %17 ], [ -1, %23 ]
  %26 = call noalias ptr @GC_malloc_atomic(i64 noundef %25) #22
  store ptr %26, ptr %7, align 8
  %27 = load ptr, ptr %7, align 8
  %28 = load i64, ptr %4, align 8
  %29 = load ptr, ptr %5, align 8
  %30 = load i32, ptr %6, align 4
  %31 = call ptr @store_debug_info(ptr noundef %27, i64 noundef %28, ptr noundef @.str.21, ptr noundef %29, i32 noundef %30)
  ret ptr %31
}

; Function Attrs: nounwind uwtable
define noalias ptr @GC_debug_wcsdup(ptr noundef nonnull %0, ptr noundef %1, i32 noundef %2) #0 {
  %4 = alloca ptr, align 8
  %5 = alloca ptr, align 8
  %6 = alloca ptr, align 8
  %7 = alloca i32, align 4
  %8 = alloca i64, align 8
  %9 = alloca ptr, align 8
  store ptr %0, ptr %5, align 8
  store ptr %1, ptr %6, align 8
  store i32 %2, ptr %7, align 4
  %10 = load ptr, ptr %5, align 8
  %11 = call i64 @wcslen(ptr noundef %10) #21
  %12 = add i64 %11, 1
  %13 = mul i64 %12, 4
  store i64 %13, ptr %8, align 8
  %14 = load i64, ptr %8, align 8
  %15 = load ptr, ptr %6, align 8
  %16 = load i32, ptr %7, align 4
  %17 = call noalias ptr @GC_debug_malloc_atomic(i64 noundef %14, ptr noundef %15, i32 noundef %16) #22
  store ptr %17, ptr %9, align 8
  %18 = load ptr, ptr %9, align 8
  %19 = icmp eq ptr %18, null
  br i1 %19, label %20, label %22

20:                                               ; preds = %3
  %21 = call ptr @__errno_location() #23
  store i32 12, ptr %21, align 4
  store ptr null, ptr %4, align 8
  br label %27

22:                                               ; preds = %3
  %23 = load ptr, ptr %9, align 8
  %24 = load ptr, ptr %5, align 8
  %25 = load i64, ptr %8, align 8
  call void @llvm.memcpy.p0.p0.i64(ptr align 4 %23, ptr align 4 %24, i64 %25, i1 false)
  %26 = load ptr, ptr %9, align 8
  store ptr %26, ptr %4, align 8
  br label %27

27:                                               ; preds = %22, %20
  %28 = load ptr, ptr %4, align 8
  ret ptr %28
}