; Function Attrs: nounwind uwtable
define noalias ptr @GC_debug_wcsdup(ptr noundef nonnull readonly captures(none) %0, ptr noundef %1, i32 noundef %2) local_unnamed_addr #1 {
  %4 = tail call i64 @wcslen(ptr noundef nonnull %0) #49
  %5 = shl i64 %4, 2
  %6 = add i64 %5, 4
  %7 = load i32, ptr @GC_all_interior_pointers, align 4
  %8 = sext i32 %7 to i64
  %9 = add nsw i64 %8, -41
  %10 = icmp ult i64 %6, %9
  %reass.sub.i = add i64 %5, 44
  %11 = sub i64 %reass.sub.i, %8
  %12 = select i1 %10, i64 %11, i64 -1
  %13 = tail call noalias ptr @GC_malloc_kind(i64 noundef %12, i32 noundef 0) #51
  %14 = tail call fastcc noalias ptr @store_debug_info(ptr noundef %13, i64 noundef %6, ptr noundef nonnull @.str.21, ptr noundef %1, i32 noundef %2)
  %15 = icmp eq ptr %14, null
  br i1 %15, label %16, label %18

16:                                               ; preds = %3
  %17 = tail call ptr @__errno_location() #48
  store i32 12, ptr %17, align 4
  br label %19

18:                                               ; preds = %3
  tail call void @llvm.memcpy.p0.p0.i64(ptr nonnull align 4 %14, ptr nonnull align 4 %0, i64 %6, i1 false)
  br label %19

19:                                               ; preds = %18, %16
  ret ptr %14
}